; Function Attrs: nounwind sspstrong uwtable
define internal i64 @do_ioctl_kdsigaccept(ptr noundef readonly captures(none) %ie, ptr readnone captures(none) %buf_temp, i32 noundef %fd, i32 %cmd, i64 noundef %arg) #2 {
entry:
  %conv = trunc i64 %arg to i32
  %call = tail call i32 @target_to_host_signal(i32 noundef %conv) #27
  %0 = tail call align 8 ptr @llvm.threadlocal.address.p0(ptr align 8 @thread_cpu)
  %1 = load ptr, ptr %0, align 8
  %opaque = getelementptr inbounds nuw i8, ptr %1, i64 624
  %2 = load ptr, ptr %opaque, align 16
  %signal_pending = getelementptr inbounds nuw i8, ptr %2, i64 9164
  %host_cmd = getelementptr inbounds nuw i8, ptr %ie, i64 4
  %3 = load i32, ptr %host_cmd, align 4
  %call1 = tail call i64 (ptr, i64, ...) @safe_syscall_base(ptr noundef nonnull %signal_pending, i64 noundef 16, i32 noundef %fd, i32 noundef %3, i32 noundef %call) #27
  %cmp.i = icmp eq i64 %call1, -1
  br i1 %cmp.i, label %if.then.i, label %get_errno.exit

if.then.i:                                        ; preds = %entry
  %call.i = tail call ptr @__errno_location() #26
  %4 = load i32, ptr %call.i, align 4
  %sub.i = sub i32 0, %4
  %conv.i = sext i32 %sub.i to i64
  br label %get_errno.exit

get_errno.exit:                                   ; preds = %entry, %if.then.i
  %retval.0.i = phi i64 [ %conv.i, %if.then.i ], [ %call1, %entry ]
  ret i64 %retval.0.i
}